	.file	"branch_mispred.c"
	.text
.Ltext0:
	.section	.text.unlikely,"ax",@progbits
.LCOLDB0:
	.text
.LHOTB0:
	.p2align 4,,15
	.section	.text.unlikely
.Ltext_cold0:
	.text
	.globl	perf_event_open
	.type	perf_event_open, @function
perf_event_open:
.LFB91:
	.file 1 "branch_mispred.c"
	.loc 1 39 0
	.cfi_startproc
.LVL0:
	subq	$8, %rsp
	.cfi_def_cfa_offset 16
	.loc 1 40 0
	movq	%r8, %r9
	xorl	%eax, %eax
	movl	%ecx, %r8d
.LVL1:
	movl	%edx, %ecx
.LVL2:
	movl	%esi, %edx
.LVL3:
	movq	%rdi, %rsi
.LVL4:
	movl	$298, %edi
.LVL5:
	call	syscall
.LVL6:
	.loc 1 41 0
	addq	$8, %rsp
	.cfi_def_cfa_offset 8
	ret
	.cfi_endproc
.LFE91:
	.size	perf_event_open, .-perf_event_open
	.section	.text.unlikely
.LCOLDE0:
	.text
.LHOTE0:
	.section	.rodata.str1.1,"aMS",@progbits,1
.LC3:
	.string	"Failed to get time stamp"
	.section	.text.unlikely
.LCOLDB4:
	.text
.LHOTB4:
	.p2align 4,,15
	.globl	get_timestamp
	.type	get_timestamp, @function
get_timestamp:
.LFB93:
	.loc 1 206 0
	.cfi_startproc
.LVL7:
	subq	$56, %rsp
	.cfi_def_cfa_offset 64
	.loc 1 209 0
	xorl	%esi, %esi
	leaq	16(%rsp), %rdi
	.loc 1 206 0
	movsd	%xmm0, 8(%rsp)
	movq	%fs:40, %rax
	movq	%rax, 40(%rsp)
	xorl	%eax, %eax
	.loc 1 209 0
	call	gettimeofday
.LVL8:
	testl	%eax, %eax
	jne	.L4
	.loc 1 210 0
	pxor	%xmm0, %xmm0
	pxor	%xmm1, %xmm1
	cvtsi2sdq	24(%rsp), %xmm0
	mulsd	.LC2(%rip), %xmm0
	cvtsi2sdq	16(%rsp), %xmm1
	addsd	%xmm1, %xmm0
	subsd	8(%rsp), %xmm0
.L5:
	.loc 1 215 0
	movq	40(%rsp), %rax
	xorq	%fs:40, %rax
	jne	.L9
	addq	$56, %rsp
	.cfi_remember_state
	.cfi_def_cfa_offset 8
	ret
	.p2align 4,,10
	.p2align 3
.L4:
	.cfi_restore_state
.LVL9:
.LBB122:
.LBB123:
.LBB124:
.LBB125:
	.file 2 "/usr/include/x86_64-linux-gnu/bits/stdio2.h"
	.loc 2 104 0
	movl	$.LC3, %esi
	movl	$1, %edi
	xorl	%eax, %eax
	call	__printf_chk
.LVL10:
	movsd	.LC1(%rip), %xmm0
	jmp	.L5
.L9:
.LBE125:
.LBE124:
.LBE123:
.LBE122:
	.loc 1 215 0
	call	__stack_chk_fail
.LVL11:
	.cfi_endproc
.LFE93:
	.size	get_timestamp, .-get_timestamp
	.section	.text.unlikely
.LCOLDE4:
	.text
.LHOTE4:
	.section	.text.unlikely
.LCOLDB6:
	.text
.LHOTB6:
	.p2align 4,,15
	.globl	createData
	.type	createData, @function
createData:
.LFB94:
	.loc 1 223 0
	.cfi_startproc
.LVL12:
	pushq	%r12
	.cfi_def_cfa_offset 16
	.cfi_offset 12, -16
	pushq	%rbp
	.cfi_def_cfa_offset 24
	.cfi_offset 6, -24
	leaq	3000(%rdi), %rbp
	pushq	%rbx
	.cfi_def_cfa_offset 32
	.cfi_offset 3, -32
	movq	%rdi, %r12
	movq	%rdi, %rbx
	subq	$16, %rsp
	.cfi_def_cfa_offset 48
	.loc 1 223 0
	movsd	%xmm0, 8(%rsp)
.LVL13:
	.p2align 4,,10
	.p2align 3
.L11:
	.loc 1 228 0
	call	rand
.LVL14:
	pxor	%xmm0, %xmm0
	movsd	8(%rsp), %xmm1
	cvtsi2sd	%eax, %xmm0
	mulsd	.LC5(%rip), %xmm0
	ucomisd	%xmm0, %xmm1
	seta	(%rbx)
	.loc 1 234 0
	addq	$1, %rbx
.LVL15:
	.loc 1 227 0
	cmpq	%rbp, %rbx
	jne	.L11
	.loc 1 236 0
	movb	$0, 3000(%r12)
	.loc 1 238 0
	addq	$16, %rsp
	.cfi_def_cfa_offset 32
	movq	%rbx, %rax
.LVL16:
	popq	%rbx
	.cfi_def_cfa_offset 24
.LVL17:
	popq	%rbp
	.cfi_def_cfa_offset 16
	popq	%r12
	.cfi_def_cfa_offset 8
	ret
	.cfi_endproc
.LFE94:
	.size	createData, .-createData
	.section	.text.unlikely
.LCOLDE6:
	.text
.LHOTE6:
	.section	.text.unlikely
.LCOLDB8:
	.text
.LHOTB8:
	.p2align 4,,15
	.globl	createOffsets
	.type	createOffsets, @function
createOffsets:
.LFB95:
	.loc 1 246 0
	.cfi_startproc
.LVL18:
	pushq	%rbp
	.cfi_def_cfa_offset 16
	.cfi_offset 6, -16
	pushq	%rbx
	.cfi_def_cfa_offset 24
	.cfi_offset 3, -24
	leaq	400000000(%rdi), %rbp
	movq	%rdi, %rbx
	subq	$8, %rsp
	.cfi_def_cfa_offset 32
.LVL19:
	.p2align 4,,10
	.p2align 3
.L15:
.LBB126:
	.loc 1 249 0 discriminator 3
	call	rand
.LVL20:
	.loc 1 250 0 discriminator 3
	pxor	%xmm0, %xmm0
	addq	$4, %rbx
	cvtsi2sd	%eax, %xmm0
	mulsd	.LC5(%rip), %xmm0
	mulsd	.LC7(%rip), %xmm0
	cvttsd2si	%xmm0, %eax
.LVL21:
	movl	%eax, -4(%rbx)
.LBE126:
	.loc 1 248 0 discriminator 3
	cmpq	%rbp, %rbx
	jne	.L15
	.loc 1 253 0
	addq	$8, %rsp
	.cfi_def_cfa_offset 24
	xorl	%eax, %eax
	popq	%rbx
	.cfi_def_cfa_offset 16
	popq	%rbp
	.cfi_def_cfa_offset 8
.LVL22:
	ret
	.cfi_endproc
.LFE95:
	.size	createOffsets, .-createOffsets
	.section	.text.unlikely
.LCOLDE8:
	.text
.LHOTE8:
	.section	.rodata.str1.1
.LC9:
	.string	"Opening performance counter"
.LC10:
	.string	"argument error!"
.LC11:
	.string	"Loop start!"
.LC13:
	.string	"branch_mispred.c"
.LC14:
	.string	"rc"
.LC15:
	.string	"Loop stop!"
.LC16:
	.string	"Elapsed time: %.9lf seconds\n"
.LC17:
	.string	"CPU Cycles:           %lu \n"
.LC18:
	.string	"Instructions:         %lu \n"
.LC19:
	.string	"IPC:                  %lf\n"
.LC20:
	.string	"Branch misses:        %lu \n"
.LC21:
	.string	"Branch instructions:  %lu \n"
.LC23:
	.string	"Branch mispred. rate: %lf%%\n"
.LC25:
	.string	"overall selectivity = %10.9f\n"
	.section	.rodata.str1.8,"aMS",@progbits,1
	.align 8
.LC26:
	.string	"theoretical selectivity = %10.9f\n"
	.section	.rodata.str1.1
.LC27:
	.string	"w"
.LC28:
	.string	"/dev/null"
.LC29:
	.string	"%d "
	.section	.text.unlikely
.LCOLDB30:
	.section	.text.startup,"ax",@progbits
.LHOTB30:
	.p2align 4,,15
	.globl	main
	.type	main, @function
main:
.LFB92:
	.loc 1 52 0
	.cfi_startproc
.LVL23:
	pushq	%r15
	.cfi_def_cfa_offset 16
	.cfi_offset 15, -16
	pushq	%r14
	.cfi_def_cfa_offset 24
	.cfi_offset 14, -24
	pushq	%r13
	.cfi_def_cfa_offset 32
	.cfi_offset 13, -32
	pushq	%r12
	.cfi_def_cfa_offset 40
	.cfi_offset 12, -40
	pushq	%rbp
	.cfi_def_cfa_offset 48
	.cfi_offset 6, -48
	pushq	%rbx
	.cfi_def_cfa_offset 56
	.cfi_offset 3, -56
	movl	%edi, %ebp
	movq	%rsi, %rbx
	subq	$12200, %rsp
	.cfi_def_cfa_offset 12256
	.loc 1 64 0
	movl	$0, attr(%rip)
	.loc 1 66 0
	andb	$-2, attr+40(%rip)
	.loc 1 52 0
	movq	%fs:40, %rax
	movq	%rax, 12184(%rsp)
	xorl	%eax, %eax
.LVL24:
	.loc 1 65 0
	movq	$0, attr+8(%rip)
	.loc 1 67 0
	call	getpid
.LVL25:
.LBB127:
.LBB128:
	.loc 1 40 0
	movl	$-1, %r8d
	xorl	%r9d, %r9d
	movl	%eax, %edx
	movl	%r8d, %ecx
	xorl	%eax, %eax
.LVL26:
	movl	$attr, %esi
	movl	$298, %edi
	call	syscall
.LVL27:
.LBE128:
.LBE127:
	.loc 1 68 0
	testl	%eax, %eax
.LBB130:
.LBB129:
	.loc 1 40 0
	movq	%rax, %r15
.LVL28:
.LBE129:
.LBE130:
	.loc 1 68 0
	js	.L54
.LVL29:
.L19:
	.loc 1 74 0
	andb	$-2, attr+152(%rip)
	.loc 1 72 0
	movl	$0, attr+112(%rip)
	.loc 1 73 0
	movq	$5, attr+120(%rip)
	.loc 1 75 0
	call	getpid
.LVL30:
.LBB131:
.LBB132:
	.loc 1 40 0
	movl	$-1, %r8d
	xorl	%r9d, %r9d
	movl	%eax, %edx
	movl	%r8d, %ecx
	xorl	%eax, %eax
.LVL31:
	movl	$attr+112, %esi
.LVL32:
	movl	$298, %edi
	call	syscall
.LVL33:
.LBE132:
.LBE131:
	.loc 1 76 0
	testl	%eax, %eax
.LBB134:
.LBB133:
	.loc 1 40 0
	movq	%rax, 16(%rsp)
.LVL34:
.LBE133:
.LBE134:
	.loc 1 76 0
	js	.L55
.LVL35:
.L20:
	.loc 1 82 0
	andb	$-2, attr+264(%rip)
	.loc 1 80 0
	movl	$0, attr+224(%rip)
	.loc 1 81 0
	movq	$4, attr+232(%rip)
	.loc 1 83 0
	call	getpid
.LVL36:
.LBB135:
.LBB136:
	.loc 1 40 0
	movl	$-1, %r8d
	xorl	%r9d, %r9d
	movl	%eax, %edx
	movl	%r8d, %ecx
	xorl	%eax, %eax
.LVL37:
	movl	$attr+224, %esi
.LVL38:
	movl	$298, %edi
	call	syscall
.LVL39:
.LBE136:
.LBE135:
	.loc 1 84 0
	testl	%eax, %eax
.LBB138:
.LBB137:
	.loc 1 40 0
	movq	%rax, 24(%rsp)
.LVL40:
.LBE137:
.LBE138:
	.loc 1 84 0
	js	.L56
.LVL41:
.L21:
	.loc 1 90 0
	andb	$-2, attr+376(%rip)
	.loc 1 88 0
	movl	$0, attr+336(%rip)
	.loc 1 89 0
	movq	$1, attr+344(%rip)
	.loc 1 91 0
	call	getpid
.LVL42:
.LBB139:
.LBB140:
	.loc 1 40 0
	movl	$-1, %r8d
	xorl	%r9d, %r9d
	movl	%eax, %edx
	movl	%r8d, %ecx
	xorl	%eax, %eax
.LVL43:
	movl	$attr+336, %esi
.LVL44:
	movl	$298, %edi
	call	syscall
.LVL45:
.LBE140:
.LBE139:
	.loc 1 92 0
	testl	%eax, %eax
.LBB142:
.LBB141:
	.loc 1 40 0
	movq	%rax, 32(%rsp)
.LVL46:
.LBE141:
.LBE142:
	.loc 1 92 0
	js	.L57
.LVL47:
.L22:
	.loc 1 97 0
	cmpl	$5, %ebp
	jne	.L58
.LVL48:
.LBB143:
.LBB144:
	.file 3 "/usr/include/x86_64-linux-gnu/bits/stdlib-float.h"
	.loc 3 28 0
	movq	8(%rbx), %rdi
	xorl	%esi, %esi
	call	strtod
.LVL49:
.LBE144:
.LBE143:
.LBB146:
.LBB147:
	movq	16(%rbx), %rdi
	xorl	%esi, %esi
.LBE147:
.LBE146:
.LBB150:
.LBB145:
	movsd	%xmm0, 64(%rsp)
.LBE145:
.LBE150:
.LBB151:
.LBB148:
	call	strtod
.LVL50:
.LBE148:
.LBE151:
.LBB152:
.LBB153:
	movq	24(%rbx), %rdi
	xorl	%esi, %esi
.LBE153:
.LBE152:
.LBB156:
.LBB149:
	movsd	%xmm0, 56(%rsp)
.LBE149:
.LBE156:
.LBB157:
.LBB154:
	call	strtod
.LVL51:
.LBE154:
.LBE157:
.LBB158:
.LBB159:
	movq	32(%rbx), %rdi
	xorl	%esi, %esi
.LBE159:
.LBE158:
.LBB162:
.LBB155:
	movsd	%xmm0, 48(%rsp)
.LBE155:
.LBE162:
.LBB163:
.LBB160:
	call	strtod
.LVL52:
.LBE160:
.LBE163:
	.loc 1 109 0
	movl	$400000000, %edi
.LBB164:
.LBB161:
	.loc 3 28 0
	movsd	%xmm0, 40(%rsp)
.LBE161:
.LBE164:
	.loc 1 109 0
	call	malloc
.LVL53:
	.loc 1 110 0
	movl	$400000000, %edi
	.loc 1 109 0
	movq	%rax, %rbx
.LVL54:
	.loc 1 110 0
	call	malloc
.LVL55:
	.loc 1 111 0
	movl	$400000000, %edi
	.loc 1 110 0
	movq	%rax, %r14
.LVL56:
	.loc 1 111 0
	call	malloc
.LVL57:
	.loc 1 112 0
	movl	$400000000, %edi
	.loc 1 111 0
	movq	%rax, %r13
.LVL58:
	.loc 1 112 0
	call	malloc
.LVL59:
	.loc 1 113 0
	movl	$400000000, %edi
	.loc 1 112 0
	movq	%rax, %r12
	movq	%rax, 8(%rsp)
.LVL60:
	.loc 1 113 0
	call	malloc
.LVL61:
	.loc 1 116 0
	xorl	%edi, %edi
	.loc 1 113 0
	movq	%rax, %rbp
.LVL62:
	.loc 1 116 0
	call	time
.LVL63:
	.loc 1 117 0
	movl	%eax, %edi
	call	srand
.LVL64:
	.loc 1 120 0
	leaq	144(%rsp), %rdi
	movsd	64(%rsp), %xmm0
	call	createData
.LVL65:
	.loc 1 121 0
	leaq	3152(%rsp), %rdi
	movsd	56(%rsp), %xmm0
	call	createData
.LVL66:
	.loc 1 122 0
	leaq	6160(%rsp), %rdi
	movsd	48(%rsp), %xmm0
	call	createData
.LVL67:
	.loc 1 123 0
	movsd	40(%rsp), %xmm0
	leaq	9168(%rsp), %rdi
	call	createData
.LVL68:
	.loc 1 126 0
	movq	%rbx, %rdi
	call	createOffsets
.LVL69:
	.loc 1 127 0
	movq	%r14, %rdi
	call	createOffsets
.LVL70:
	.loc 1 128 0
	movq	%r13, %rdi
	call	createOffsets
.LVL71:
	.loc 1 129 0
	movq	%r12, %rdi
	call	createOffsets
.LVL72:
.LBB165:
.LBB166:
	.loc 2 104 0
	movl	$.LC11, %edi
	call	puts
.LVL73:
.LBE166:
.LBE165:
	.loc 1 133 0
	movq	stdout(%rip), %rdi
	call	fflush
.LVL74:
	.loc 1 134 0
	pxor	%xmm0, %xmm0
	call	get_timestamp
.LVL75:
	movsd	%xmm0, 72(%rsp)
.LVL76:
	.loc 1 137 0
#APP
# 137 "branch_mispred.c" 1
	nop;
# 0 "" 2
.LVL77:
#NO_APP
.LBB167:
.LBB168:
	.file 4 "/usr/include/x86_64-linux-gnu/bits/unistd.h"
	.loc 4 44 0
	leaq	80(%rsp), %rsi
.LVL78:
	movl	$8, %edx
	movl	%r15d, %edi
	call	read
.LVL79:
.LBE168:
.LBE167:
	.loc 1 138 0
	testl	%eax, %eax
	je	.L59
.LVL80:
.LBB169:
.LBB170:
	.loc 4 44 0
	movl	16(%rsp), %edi
	leaq	88(%rsp), %rsi
.LVL81:
	movl	$8, %edx
	call	read
.LVL82:
.LBE170:
.LBE169:
	.loc 1 139 0
	testl	%eax, %eax
	je	.L60
.LVL83:
.LBB171:
.LBB172:
	.loc 4 44 0
	movl	24(%rsp), %edi
	leaq	96(%rsp), %rsi
.LVL84:
	movl	$8, %edx
	call	read
.LVL85:
.LBE172:
.LBE171:
	.loc 1 140 0
	testl	%eax, %eax
	je	.L61
.LVL86:
.LBB173:
.LBB174:
	.loc 4 44 0
	movl	32(%rsp), %edi
	leaq	104(%rsp), %rsi
.LVL87:
	movl	$8, %edx
	call	read
.LVL88:
.LBE174:
.LBE173:
	.loc 1 141 0
	testl	%eax, %eax
	je	.L62
	.loc 1 142 0
#APP
# 142 "branch_mispred.c" 1
	nop;
# 0 "" 2
#NO_APP
	xorl	%eax, %eax
.LVL89:
	.loc 1 55 0
	xorl	%r12d, %r12d
.LVL90:
	.p2align 4,,10
	.p2align 3
.L30:
	.loc 1 147 0
	movslq	0(%r13,%rax,4), %rdx
	cmpb	$0, 6160(%rsp,%rdx)
	je	.L29
	.loc 1 147 0 is_stmt 0 discriminator 1
	movslq	(%r14,%rax,4), %rdx
	cmpb	$0, 3152(%rsp,%rdx)
	je	.L29
	.loc 1 147 0 discriminator 2
	movslq	(%rbx,%rax,4), %rdx
	cmpb	$0, 144(%rsp,%rdx)
	je	.L29
	.loc 1 149 0 is_stmt 1
	movq	8(%rsp), %rcx
	.loc 1 148 0
	movslq	%r12d, %rdx
	movl	%eax, 0(%rbp,%rdx,4)
	.loc 1 149 0
	movslq	(%rcx,%rax,4), %rdx
	movsbl	9168(%rsp,%rdx), %edx
	addl	%edx, %r12d
.LVL91:
	.p2align 4,,10
	.p2align 3
.L29:
	addq	$1, %rax
.LVL92:
	.loc 1 146 0 discriminator 2
	cmpq	$100000000, %rax
	jne	.L30
	.loc 1 154 0
#APP
# 154 "branch_mispred.c" 1
	nop;
# 0 "" 2
.LVL93:
#NO_APP
.LBB175:
.LBB176:
	.loc 4 44 0
	leaq	112(%rsp), %rsi
.LVL94:
	movl	$8, %edx
	movl	%r15d, %edi
	call	read
.LVL95:
.LBE176:
.LBE175:
	.loc 1 155 0
	testl	%eax, %eax
	je	.L63
.LVL96:
.LBB177:
.LBB178:
	.loc 4 44 0
	movl	16(%rsp), %edi
	leaq	120(%rsp), %rsi
.LVL97:
	movl	$8, %edx
	call	read
.LVL98:
.LBE178:
.LBE177:
	.loc 1 156 0
	testl	%eax, %eax
	je	.L64
.LVL99:
.LBB179:
.LBB180:
	.loc 4 44 0
	movl	24(%rsp), %edi
	leaq	128(%rsp), %rsi
.LVL100:
	movl	$8, %edx
	call	read
.LVL101:
.LBE180:
.LBE179:
	.loc 1 157 0
	testl	%eax, %eax
	je	.L65
.LVL102:
.LBB181:
.LBB182:
	.loc 4 44 0
	movl	32(%rsp), %edi
	leaq	136(%rsp), %rsi
.LVL103:
	movl	$8, %edx
	call	read
.LVL104:
.LBE182:
.LBE181:
	.loc 1 158 0
	testl	%eax, %eax
	je	.L66
	.loc 1 160 0
#APP
# 160 "branch_mispred.c" 1
	nop;
# 0 "" 2
	.loc 1 163 0
#NO_APP
	movl	%r15d, %edi
	call	close
.LVL105:
	.loc 1 164 0
	movl	16(%rsp), %edi
	call	close
.LVL106:
	.loc 1 165 0
	movl	24(%rsp), %edi
	call	close
.LVL107:
	.loc 1 166 0
	movl	32(%rsp), %edi
	call	close
.LVL108:
	.loc 1 168 0
	movsd	72(%rsp), %xmm0
	call	get_timestamp
.LVL109:
.LBB183:
.LBB184:
	.loc 2 104 0
	movl	$.LC15, %edi
.LBE184:
.LBE183:
	.loc 1 168 0
	movsd	%xmm0, 16(%rsp)
.LVL110:
.LBB186:
.LBB185:
	.loc 2 104 0
	call	puts
.LVL111:
.LBE185:
.LBE186:
.LBB187:
.LBB188:
	movsd	16(%rsp), %xmm0
	movl	$.LC16, %esi
	movl	$1, %edi
	movl	$1, %eax
	call	__printf_chk
.LVL112:
.LBE188:
.LBE187:
.LBB189:
.LBB190:
	movq	112(%rsp), %rdx
	subq	80(%rsp), %rdx
	movl	$.LC17, %esi
	movl	$1, %edi
	xorl	%eax, %eax
	call	__printf_chk
.LVL113:
.LBE190:
.LBE189:
.LBB191:
.LBB192:
	movq	136(%rsp), %rdx
	subq	104(%rsp), %rdx
	xorl	%eax, %eax
	movl	$.LC18, %esi
	movl	$1, %edi
	call	__printf_chk
.LVL114:
.LBE192:
.LBE191:
.LBB193:
.LBB194:
	movq	136(%rsp), %rdx
	testq	%rdx, %rdx
	js	.L35
	pxor	%xmm0, %xmm0
	cvtsi2sdq	%rdx, %xmm0
.L36:
	movq	104(%rsp), %rax
	testq	%rax, %rax
	js	.L37
	pxor	%xmm1, %xmm1
	cvtsi2sdq	%rax, %xmm1
.L38:
	movq	112(%rsp), %rax
	subq	80(%rsp), %rax
	subsd	%xmm1, %xmm0
	js	.L39
	pxor	%xmm1, %xmm1
	cvtsi2sdq	%rax, %xmm1
.L40:
	divsd	%xmm1, %xmm0
	movl	$.LC19, %esi
	movl	$1, %edi
	movl	$1, %eax
	call	__printf_chk
.LVL115:
.LBE194:
.LBE193:
.LBB196:
.LBB197:
	movq	120(%rsp), %rdx
	subq	88(%rsp), %rdx
	movl	$.LC20, %esi
	movl	$1, %edi
	xorl	%eax, %eax
	call	__printf_chk
.LVL116:
.LBE197:
.LBE196:
.LBB198:
.LBB199:
	movq	128(%rsp), %rdx
	subq	96(%rsp), %rdx
	xorl	%eax, %eax
	movl	$.LC21, %esi
	movl	$1, %edi
	call	__printf_chk
.LVL117:
.LBE199:
.LBE198:
.LBB200:
.LBB201:
	movq	120(%rsp), %rdx
	testq	%rdx, %rdx
	js	.L41
	pxor	%xmm0, %xmm0
	cvtsi2sdq	%rdx, %xmm0
.L42:
	movq	88(%rsp), %rax
	testq	%rax, %rax
	js	.L43
	pxor	%xmm1, %xmm1
	cvtsi2sdq	%rax, %xmm1
.L44:
	subsd	%xmm1, %xmm0
	movq	128(%rsp), %rax
	subq	96(%rsp), %rax
	mulsd	.LC22(%rip), %xmm0
	js	.L45
	pxor	%xmm1, %xmm1
	cvtsi2sdq	%rax, %xmm1
.L46:
	divsd	%xmm1, %xmm0
	movl	$.LC23, %esi
	movl	$1, %edi
	movl	$1, %eax
	call	__printf_chk
.LVL118:
.LBE201:
.LBE200:
.LBB203:
.LBB204:
	movl	$10, %edi
	call	putchar
.LVL119:
.LBE204:
.LBE203:
.LBB205:
.LBB206:
	pxor	%xmm0, %xmm0
	movl	$.LC25, %esi
	movl	$1, %edi
	movl	$1, %eax
	cvtsi2sd	%r12d, %xmm0
	divsd	.LC24(%rip), %xmm0
	call	__printf_chk
.LVL120:
.LBE206:
.LBE205:
.LBB207:
.LBB208:
	movsd	56(%rsp), %xmm0
	movl	$.LC26, %esi
	movl	$1, %edi
	movl	$1, %eax
	mulsd	64(%rsp), %xmm0
	mulsd	48(%rsp), %xmm0
	mulsd	40(%rsp), %xmm0
	call	__printf_chk
.LVL121:
.LBE208:
.LBE207:
	.loc 1 184 0
	movl	$.LC27, %esi
	movl	$.LC28, %edi
	call	fopen
.LVL122:
	.loc 1 185 0
	testl	%r12d, %r12d
	.loc 1 184 0
	movq	%rax, 16(%rsp)
.LVL123:
	.loc 1 185 0
	jle	.L49
	leal	-1(%r12), %eax
.LVL124:
	movq	%rbp, %r15
	leaq	4(%rbp,%rax,4), %r12
.LVL125:
	.p2align 4,,10
	.p2align 3
.L48:
.LBB209:
.LBB210:
	.loc 2 97 0 discriminator 3
	movl	(%r15), %ecx
	movq	16(%rsp), %rdi
	xorl	%eax, %eax
	movl	$.LC29, %edx
	movl	$1, %esi
	addq	$4, %r15
	call	__fprintf_chk
.LVL126:
.LBE210:
.LBE209:
	.loc 1 185 0 discriminator 3
	cmpq	%r15, %r12
	jne	.L48
.L49:
	.loc 1 188 0
	movq	16(%rsp), %rdi
	call	fclose
.LVL127:
	.loc 1 191 0
	movq	%rbx, %rdi
	call	free
.LVL128:
	.loc 1 192 0
	movq	%r14, %rdi
	call	free
.LVL129:
	.loc 1 193 0
	movq	%r13, %rdi
	call	free
.LVL130:
	.loc 1 194 0
	movq	8(%rsp), %rdi
	call	free
.LVL131:
	.loc 1 196 0
	movq	%rbp, %rdi
	call	free
.LVL132:
	.loc 1 198 0
	xorl	%eax, %eax
.LVL133:
.L24:
	.loc 1 199 0
	movq	12184(%rsp), %rbx
	xorq	%fs:40, %rbx
	jne	.L67
	addq	$12200, %rsp
	.cfi_remember_state
	.cfi_def_cfa_offset 56
	popq	%rbx
	.cfi_def_cfa_offset 48
	popq	%rbp
	.cfi_def_cfa_offset 40
	popq	%r12
	.cfi_def_cfa_offset 32
	popq	%r13
	.cfi_def_cfa_offset 24
	popq	%r14
	.cfi_def_cfa_offset 16
	popq	%r15
	.cfi_def_cfa_offset 8
	ret
.LVL134:
.L35:
	.cfi_restore_state
.LBB211:
.LBB195:
	.loc 2 104 0
	movq	%rdx, %rax
	pxor	%xmm0, %xmm0
	shrq	%rax
	andl	$1, %edx
	orq	%rdx, %rax
	cvtsi2sdq	%rax, %xmm0
	addsd	%xmm0, %xmm0
	jmp	.L36
.L37:
	movq	%rax, %rdx
	pxor	%xmm1, %xmm1
	shrq	%rdx
	andl	$1, %eax
	orq	%rax, %rdx
	cvtsi2sdq	%rdx, %xmm1
	addsd	%xmm1, %xmm1
	jmp	.L38
.L39:
	movq	%rax, %rdx
	pxor	%xmm1, %xmm1
	shrq	%rdx
	andl	$1, %eax
	orq	%rax, %rdx
	cvtsi2sdq	%rdx, %xmm1
	addsd	%xmm1, %xmm1
	jmp	.L40
.LVL135:
.L41:
.LBE195:
.LBE211:
.LBB212:
.LBB202:
	movq	%rdx, %rax
	pxor	%xmm0, %xmm0
	shrq	%rax
	andl	$1, %edx
	orq	%rdx, %rax
	cvtsi2sdq	%rax, %xmm0
	addsd	%xmm0, %xmm0
	jmp	.L42
.L43:
	movq	%rax, %rdx
	pxor	%xmm1, %xmm1
	shrq	%rdx
	andl	$1, %eax
	orq	%rax, %rdx
	cvtsi2sdq	%rdx, %xmm1
	addsd	%xmm1, %xmm1
	jmp	.L44
.L45:
	movq	%rax, %rdx
	pxor	%xmm1, %xmm1
	shrq	%rdx
	andl	$1, %eax
	orq	%rax, %rdx
	cvtsi2sdq	%rdx, %xmm1
	addsd	%xmm1, %xmm1
	jmp	.L46
.LVL136:
.L55:
.LBE202:
.LBE212:
	.loc 1 77 0
	movl	$.LC9, %edi
	call	perror
.LVL137:
	jmp	.L20
.LVL138:
.L57:
	.loc 1 93 0
	movl	$.LC9, %edi
	call	perror
.LVL139:
	jmp	.L22
.LVL140:
.L54:
	.loc 1 69 0
	movl	$.LC9, %edi
	call	perror
.LVL141:
	jmp	.L19
.LVL142:
.L56:
	.loc 1 85 0
	movl	$.LC9, %edi
	call	perror
.LVL143:
	jmp	.L21
.L58:
.LVL144:
.LBB213:
.LBB214:
	.loc 2 104 0
	movl	$.LC10, %edi
	call	puts
.LVL145:
.LBE214:
.LBE213:
	.loc 1 99 0
	orl	$-1, %eax
	jmp	.L24
.LVL146:
.L60:
	.loc 1 139 0 discriminator 1
	movl	$__PRETTY_FUNCTION__.5159, %ecx
	movl	$139, %edx
	movl	$.LC13, %esi
	movl	$.LC14, %edi
	call	__assert_fail
.LVL147:
.L64:
	.loc 1 156 0 discriminator 1
	movl	$__PRETTY_FUNCTION__.5159, %ecx
	movl	$156, %edx
	movl	$.LC13, %esi
	movl	$.LC14, %edi
	call	__assert_fail
.LVL148:
.L66:
	.loc 1 158 0 discriminator 1
	movl	$__PRETTY_FUNCTION__.5159, %ecx
	movl	$158, %edx
	movl	$.LC13, %esi
	movl	$.LC14, %edi
	call	__assert_fail
.LVL149:
.L67:
	.loc 1 199 0
	call	__stack_chk_fail
.LVL150:
.L63:
	.loc 1 155 0 discriminator 1
	movl	$__PRETTY_FUNCTION__.5159, %ecx
	movl	$155, %edx
	movl	$.LC13, %esi
	movl	$.LC14, %edi
	call	__assert_fail
.LVL151:
.L59:
	.loc 1 138 0 discriminator 1
	movl	$__PRETTY_FUNCTION__.5159, %ecx
	movl	$138, %edx
	movl	$.LC13, %esi
	movl	$.LC14, %edi
	call	__assert_fail
.LVL152:
.L65:
	.loc 1 157 0 discriminator 1
	movl	$__PRETTY_FUNCTION__.5159, %ecx
	movl	$157, %edx
	movl	$.LC13, %esi
	movl	$.LC14, %edi
	call	__assert_fail
.LVL153:
.L62:
	.loc 1 141 0 discriminator 1
	movl	$__PRETTY_FUNCTION__.5159, %ecx
	movl	$141, %edx
	movl	$.LC13, %esi
	movl	$.LC14, %edi
	call	__assert_fail
.LVL154:
.L61:
	.loc 1 140 0 discriminator 1
	movl	$__PRETTY_FUNCTION__.5159, %ecx
	movl	$140, %edx
	movl	$.LC13, %esi
	movl	$.LC14, %edi
	call	__assert_fail
.LVL155:
	.cfi_endproc
.LFE92:
	.size	main, .-main
	.section	.text.unlikely
.LCOLDE30:
	.section	.text.startup
.LHOTE30:
	.section	.rodata
	.type	__PRETTY_FUNCTION__.5159, @object
	.size	__PRETTY_FUNCTION__.5159, 5
__PRETTY_FUNCTION__.5159:
	.string	"main"
	.comm	attr,448,32
	.section	.rodata.cst8,"aM",@progbits,8
	.align 8
.LC1:
	.long	0
	.long	-1074790400
	.align 8
.LC2:
	.long	2696277389
	.long	1051772663
	.align 8
.LC5:
	.long	0
	.long	1040187392
	.align 8
.LC7:
	.long	0
	.long	1084715008
	.align 8
.LC22:
	.long	0
	.long	1079574528
	.align 8
.LC24:
	.long	0
	.long	1100470148
	.text
.Letext0:
	.section	.text.unlikely
.Letext_cold0:
	.file 5 "/usr/lib/gcc/x86_64-linux-gnu/5/include/stddef.h"
	.file 6 "/usr/include/x86_64-linux-gnu/bits/types.h"
	.file 7 "/usr/include/stdio.h"
	.file 8 "/usr/include/libio.h"
	.file 9 "/usr/include/x86_64-linux-gnu/sys/types.h"
	.file 10 "/usr/include/x86_64-linux-gnu/bits/time.h"
	.file 11 "/usr/include/x86_64-linux-gnu/sys/time.h"
	.file 12 "/usr/include/stdint.h"
	.file 13 "/usr/include/asm-generic/int-ll64.h"
	.file 14 "/usr/include/linux/perf_event.h"
	.file 15 "/usr/include/unistd.h"
	.file 16 "/usr/include/stdlib.h"
	.file 17 "<built-in>"
	.file 18 "/usr/include/time.h"
	.file 19 "/usr/include/assert.h"
	.section	.note.GNU-stack,"",@progbits
